target datalayout = "e-m:e-p270:32:32-p271:32:32-p272:64:64-i64:64-i128:128-f80:128-n8:16:32:64-S128"
target triple = "x86_64-pc-linux-gnu"

%struct.dirent = type { i64, i64, i16, i8, [256 x i8] }

@.str.134 = private unnamed_addr constant [2 x i8] c".\00", align 1
@.str.214 = private unnamed_addr constant [3 x i8] c"wb\00", align 1
@.str.264 = private unnamed_addr constant [27 x i8] c"diffdirs: getcwd() failed\0A\00", align 1
@.str.265 = private unnamed_addr constant [37 x i8] c"diffdirs: Can't open %s for writing\0A\00", align 1
@.str.266 = private unnamed_addr constant [29 x i8] c"diffdirs: Can't chdir to %s\0A\00", align 1
@.str.267 = private unnamed_addr constant [35 x i8] c"diffdirs: Can't open directory %s\0A\00", align 1
@.str.268 = private unnamed_addr constant [3 x i8] c"..\00", align 1
@.str.269 = private unnamed_addr constant [6 x i8] c"%s/%s\00", align 1
@.str.270 = private unnamed_addr constant [11 x i8] c"UNLINK %s\0A\00", align 1
@.str.271 = private unnamed_addr constant [24 x i8] c"Generated diff file %s\0A\00", align 1

; Function Attrs: nounwind uwtable
define internal i32 @diffdirs(ptr noundef %0, ptr noundef %1, ptr noundef %2) #0 {
  %4 = alloca i32, align 4
  %5 = alloca ptr, align 8
  %6 = alloca ptr, align 8
  %7 = alloca ptr, align 8
  %8 = alloca ptr, align 8
  %9 = alloca ptr, align 8
  %10 = alloca ptr, align 8
  %11 = alloca [512 x i8], align 16
  %12 = alloca [1024 x i8], align 16
  store ptr %0, ptr %5, align 8
  store ptr %1, ptr %6, align 8
  store ptr %2, ptr %7, align 8
  %13 = getelementptr inbounds [512 x i8], ptr %11, i64 0, i64 0
  %14 = call ptr @getcwd(ptr noundef %13, i64 noundef 512) #11
  %15 = icmp ne ptr %14, null
  br i1 %15, label %17, label %16

16:                                               ; preds = %3
  call void (i32, ptr, ...) @mprintf(i32 noundef 5, ptr noundef @.str.264)
  store i32 -1, ptr %4, align 4
  br label %154

17:                                               ; preds = %3
  %18 = load ptr, ptr %7, align 8
  %19 = call noalias ptr @fopen(ptr noundef %18, ptr noundef @.str.214)
  store ptr %19, ptr %8, align 8
  %20 = icmp ne ptr %19, null
  br i1 %20, label %23, label %21

21:                                               ; preds = %17
  %22 = load ptr, ptr %7, align 8
  call void (i32, ptr, ...) @mprintf(i32 noundef 5, ptr noundef @.str.265, ptr noundef %22)
  store i32 -1, ptr %4, align 4
  br label %154

23:                                               ; preds = %17
  %24 = load ptr, ptr %6, align 8
  %25 = call i32 @chdir(ptr noundef %24) #11
  %26 = icmp eq i32 %25, -1
  br i1 %26, label %27, label %31

27:                                               ; preds = %23
  %28 = load ptr, ptr %6, align 8
  call void (i32, ptr, ...) @mprintf(i32 noundef 5, ptr noundef @.str.266, ptr noundef %28)
  %29 = load ptr, ptr %8, align 8
  %30 = call i32 @fclose(ptr noundef %29)
  store i32 -1, ptr %4, align 4
  br label %154

31:                                               ; preds = %23
  %32 = load ptr, ptr %6, align 8
  %33 = call ptr @opendir(ptr noundef %32)
  store ptr %33, ptr %9, align 8
  %34 = icmp eq ptr %33, null
  br i1 %34, label %35, label %39

35:                                               ; preds = %31
  %36 = load ptr, ptr %6, align 8
  call void (i32, ptr, ...) @mprintf(i32 noundef 5, ptr noundef @.str.267, ptr noundef %36)
  %37 = load ptr, ptr %8, align 8
  %38 = call i32 @fclose(ptr noundef %37)
  store i32 -1, ptr %4, align 4
  br label %154

39:                                               ; preds = %31
  br label %40

40:                                               ; preds = %90, %61, %39
  %41 = load ptr, ptr %9, align 8
  %42 = call ptr @readdir(ptr noundef %41)
  store ptr %42, ptr %10, align 8
  %43 = icmp ne ptr %42, null
  br i1 %43, label %44, label %91

44:                                               ; preds = %40
  %45 = load ptr, ptr %10, align 8
  %46 = getelementptr inbounds %struct.dirent, ptr %45, i32 0, i32 0
  %47 = load i64, ptr %46, align 8
  %48 = icmp ne i64 %47, 0
  br i1 %48, label %49, label %90

49:                                               ; preds = %44
  %50 = load ptr, ptr %10, align 8
  %51 = getelementptr inbounds %struct.dirent, ptr %50, i32 0, i32 4
  %52 = getelementptr inbounds [256 x i8], ptr %51, i64 0, i64 0
  %53 = call i32 @strcmp(ptr noundef %52, ptr noundef @.str.134) #14
  %54 = icmp ne i32 %53, 0
  br i1 %54, label %55, label %61

55:                                               ; preds = %49
  %56 = load ptr, ptr %10, align 8
  %57 = getelementptr inbounds %struct.dirent, ptr %56, i32 0, i32 4
  %58 = getelementptr inbounds [256 x i8], ptr %57, i64 0, i64 0
  %59 = call i32 @strcmp(ptr noundef %58, ptr noundef @.str.268) #14
  %60 = icmp ne i32 %59, 0
  br i1 %60, label %62, label %61

61:                                               ; preds = %55, %49
  br label %40

62:                                               ; preds = %55
  %63 = getelementptr inbounds [1024 x i8], ptr %12, i64 0, i64 0
  %64 = load ptr, ptr %5, align 8
  %65 = load ptr, ptr %10, align 8
  %66 = getelementptr inbounds %struct.dirent, ptr %65, i32 0, i32 4
  %67 = getelementptr inbounds [256 x i8], ptr %66, i64 0, i64 0
  %68 = call i32 (ptr, i64, ptr, ...) @snprintf(ptr noundef %63, i64 noundef 1024, ptr noundef @.str.269, ptr noundef %64, ptr noundef %67) #11
  %69 = getelementptr inbounds [1024 x i8], ptr %12, i64 0, i64 0
  %70 = load ptr, ptr %10, align 8
  %71 = getelementptr inbounds %struct.dirent, ptr %70, i32 0, i32 4
  %72 = getelementptr inbounds [256 x i8], ptr %71, i64 0, i64 0
  %73 = load ptr, ptr %8, align 8
  %74 = call i32 @compare(ptr noundef %69, ptr noundef %72, ptr noundef %73)
  %75 = icmp eq i32 %74, -1
  br i1 %75, label %76, label %89

76:                                               ; preds = %62
  %77 = getelementptr inbounds [512 x i8], ptr %11, i64 0, i64 0
  %78 = call i32 @chdir(ptr noundef %77) #11
  %79 = icmp eq i32 %78, -1
  br i1 %79, label %80, label %82

80:                                               ; preds = %76
  %81 = getelementptr inbounds [512 x i8], ptr %11, i64 0, i64 0
  call void (i32, ptr, ...) @mprintf(i32 noundef 4, ptr noundef @.str.266, ptr noundef %81)
  br label %82

82:                                               ; preds = %80, %76
  %83 = load ptr, ptr %8, align 8
  %84 = call i32 @fclose(ptr noundef %83)
  %85 = load ptr, ptr %7, align 8
  %86 = call i32 @unlink(ptr noundef %85) #11
  %87 = load ptr, ptr %9, align 8
  %88 = call i32 @closedir(ptr noundef %87)
  store i32 -1, ptr %4, align 4
  br label %154

89:                                               ; preds = %62
  br label %90

90:                                               ; preds = %89, %44
  br label %40

91:                                               ; preds = %40
  %92 = load ptr, ptr %9, align 8
  %93 = call i32 @closedir(ptr noundef %92)
  %94 = load ptr, ptr %5, align 8
  %95 = call ptr @opendir(ptr noundef %94)
  store ptr %95, ptr %9, align 8
  %96 = icmp eq ptr %95, null
  br i1 %96, label %97, label %101

97:                                               ; preds = %91
  %98 = load ptr, ptr %5, align 8
  call void (i32, ptr, ...) @mprintf(i32 noundef 5, ptr noundef @.str.267, ptr noundef %98)
  %99 = load ptr, ptr %8, align 8
  %100 = call i32 @fclose(ptr noundef %99)
  store i32 -1, ptr %4, align 4
  br label %154

101:                                              ; preds = %91
  br label %102

102:                                              ; preds = %141, %123, %101
  %103 = load ptr, ptr %9, align 8
  %104 = call ptr @readdir(ptr noundef %103)
  store ptr %104, ptr %10, align 8
  %105 = icmp ne ptr %104, null
  br i1 %105, label %106, label %142

106:                                              ; preds = %102
  %107 = load ptr, ptr %10, align 8
  %108 = getelementptr inbounds %struct.dirent, ptr %107, i32 0, i32 0
  %109 = load i64, ptr %108, align 8
  %110 = icmp ne i64 %109, 0
  br i1 %110, label %111, label %141

111:                                              ; preds = %106
  %112 = load ptr, ptr %10, align 8
  %113 = getelementptr inbounds %struct.dirent, ptr %112, i32 0, i32 4
  %114 = getelementptr inbounds [256 x i8], ptr %113, i64 0, i64 0
  %115 = call i32 @strcmp(ptr noundef %114, ptr noundef @.str.134) #14
  %116 = icmp ne i32 %115, 0
  br i1 %116, label %117, label %123

117:                                              ; preds = %111
  %118 = load ptr, ptr %10, align 8
  %119 = getelementptr inbounds %struct.dirent, ptr %118, i32 0, i32 4
  %120 = getelementptr inbounds [256 x i8], ptr %119, i64 0, i64 0
  %121 = call i32 @strcmp(ptr noundef %120, ptr noundef @.str.268) #14
  %122 = icmp ne i32 %121, 0
  br i1 %122, label %124, label %123

123:                                              ; preds = %117, %111
  br label %102

124:                                              ; preds = %117
  %125 = getelementptr inbounds [1024 x i8], ptr %12, i64 0, i64 0
  %126 = load ptr, ptr %6, align 8
  %127 = load ptr, ptr %10, align 8
  %128 = getelementptr inbounds %struct.dirent, ptr %127, i32 0, i32 4
  %129 = getelementptr inbounds [256 x i8], ptr %128, i64 0, i64 0
  %130 = call i32 (ptr, i64, ptr, ...) @snprintf(ptr noundef %125, i64 noundef 1024, ptr noundef @.str.269, ptr noundef %126, ptr noundef %129) #11
  %131 = getelementptr inbounds [1024 x i8], ptr %12, i64 0, i64 0
  %132 = call i32 @access(ptr noundef %131, i32 noundef 4) #11
  %133 = icmp ne i32 %132, 0
  br i1 %133, label %134, label %140

134:                                              ; preds = %124
  %135 = load ptr, ptr %8, align 8
  %136 = load ptr, ptr %10, align 8
  %137 = getelementptr inbounds %struct.dirent, ptr %136, i32 0, i32 4
  %138 = getelementptr inbounds [256 x i8], ptr %137, i64 0, i64 0
  %139 = call i32 (ptr, ptr, ...) @fprintf(ptr noundef %135, ptr noundef @.str.270, ptr noundef %138) #11
  br label %140

140:                                              ; preds = %134, %124
  br label %141

141:                                              ; preds = %140, %106
  br label %102

142:                                              ; preds = %102
  %143 = load ptr, ptr %9, align 8
  %144 = call i32 @closedir(ptr noundef %143)
  %145 = load ptr, ptr %8, align 8
  %146 = call i32 @fclose(ptr noundef %145)
  %147 = load ptr, ptr %7, align 8
  call void (i32, ptr, ...) @mprintf(i32 noundef 0, ptr noundef @.str.271, ptr noundef %147)
  %148 = getelementptr inbounds [512 x i8], ptr %11, i64 0, i64 0
  %149 = call i32 @chdir(ptr noundef %148) #11
  %150 = icmp eq i32 %149, -1
  br i1 %150, label %151, label %153

151:                                              ; preds = %142
  %152 = getelementptr inbounds [512 x i8], ptr %11, i64 0, i64 0
  call void (i32, ptr, ...) @mprintf(i32 noundef 4, ptr noundef @.str.266, ptr noundef %152)
  br label %153

153:                                              ; preds = %151, %142
  store i32 0, ptr %4, align 4
  br label %154

154:                                              ; preds = %153, %97, %82, %35, %27, %21, %16
  %155 = load i32, ptr %4, align 4
  ret i32 %155
}