; Function Attrs: nounwind uwtable
define internal fastcc noundef i32 @diffdirs(ptr noundef %0, ptr noundef %1, ptr noundef %2) unnamed_addr #0 {
  %4 = alloca [512 x i8], align 16
  %5 = alloca [1024 x i8], align 16
  %6 = call ptr @getcwd(ptr noundef nonnull %4, i64 noundef 512) #25
  %.not = icmp eq ptr %6, null
  br i1 %.not, label %7, label %8

7:                                                ; preds = %3
  call void (i32, ptr, ...) @mprintf(i32 noundef 5, ptr noundef nonnull @.str.264) #25
  br label %66

8:                                                ; preds = %3
  %9 = call noalias ptr @fopen(ptr noundef %2, ptr noundef nonnull @.str.214)
  %.not37 = icmp eq ptr %9, null
  br i1 %.not37, label %10, label %11

10:                                               ; preds = %8
  call void (i32, ptr, ...) @mprintf(i32 noundef 5, ptr noundef nonnull @.str.265, ptr noundef %2) #25
  br label %66

11:                                               ; preds = %8
  %12 = call i32 @chdir(ptr noundef %1) #25
  %13 = icmp eq i32 %12, -1
  br i1 %13, label %14, label %16

14:                                               ; preds = %11
  call void (i32, ptr, ...) @mprintf(i32 noundef 5, ptr noundef nonnull @.str.266, ptr noundef %1) #25
  %15 = call i32 @fclose(ptr noundef nonnull %9)
  br label %66

16:                                               ; preds = %11
  %17 = call ptr @opendir(ptr noundef %1)
  %18 = icmp eq ptr %17, null
  br i1 %18, label %20, label %.preheader47

.preheader47:                                     ; preds = %16
  %19 = call ptr @readdir(ptr noundef nonnull %17) #25
  %.not3849 = icmp eq ptr %19, null
  br i1 %.not3849, label %._crit_edge, label %.lr.ph

20:                                               ; preds = %16
  call void (i32, ptr, ...) @mprintf(i32 noundef 5, ptr noundef nonnull @.str.267, ptr noundef %1) #25
  %21 = call i32 @fclose(ptr noundef nonnull %9)
  br label %66

.lr.ph:                                           ; preds = %.preheader47, %.backedge48
  %22 = phi ptr [ %29, %.backedge48 ], [ %19, %.preheader47 ]
  %23 = load i64, ptr %22, align 8
  %.not44 = icmp eq i64 %23, 0
  br i1 %.not44, label %.backedge48, label %24

24:                                               ; preds = %.lr.ph
  %25 = getelementptr inbounds i8, ptr %22, i64 19
  %26 = call i32 @strcmp(ptr noundef nonnull dereferenceable(1) %25, ptr noundef nonnull dereferenceable(2) @.str.134) #31
  %.not45 = icmp eq i32 %26, 0
  br i1 %.not45, label %.backedge48, label %27

27:                                               ; preds = %24
  %28 = call i32 @strcmp(ptr noundef nonnull dereferenceable(1) %25, ptr noundef nonnull dereferenceable(3) @.str.268) #31
  %.not46 = icmp eq i32 %28, 0
  br i1 %.not46, label %.backedge48, label %30

.backedge48:                                      ; preds = %.lr.ph, %30, %24, %27
  %29 = call ptr @readdir(ptr noundef nonnull %17) #25
  %.not38 = icmp eq ptr %29, null
  br i1 %.not38, label %._crit_edge, label %.lr.ph

30:                                               ; preds = %27
  %31 = call i32 (ptr, i64, ptr, ...) @snprintf(ptr noundef nonnull dereferenceable(1) %5, i64 noundef 1024, ptr noundef nonnull @.str.269, ptr noundef %0, ptr noundef nonnull %25) #25
  %32 = call fastcc i32 @compare(ptr noundef nonnull %5, ptr noundef nonnull %25, ptr noundef nonnull %9), !range !5
  %33 = icmp eq i32 %32, -1
  br i1 %33, label %34, label %.backedge48

34:                                               ; preds = %30
  %35 = call i32 @chdir(ptr noundef nonnull %4) #25
  %36 = icmp eq i32 %35, -1
  br i1 %36, label %37, label %38

37:                                               ; preds = %34
  call void (i32, ptr, ...) @mprintf(i32 noundef 4, ptr noundef nonnull @.str.266, ptr noundef nonnull %4) #25
  br label %38

38:                                               ; preds = %37, %34
  %39 = call i32 @fclose(ptr noundef nonnull %9)
  %40 = call i32 @unlink(ptr noundef %2) #25
  %41 = call i32 @closedir(ptr noundef nonnull %17)
  br label %66

._crit_edge:                                      ; preds = %.backedge48, %.preheader47
  %42 = call i32 @closedir(ptr noundef nonnull %17)
  %43 = call ptr @opendir(ptr noundef %0)
  %44 = icmp eq ptr %43, null
  br i1 %44, label %46, label %.preheader

.preheader:                                       ; preds = %._crit_edge
  %45 = call ptr @readdir(ptr noundef nonnull %43) #25
  %.not3950 = icmp eq ptr %45, null
  br i1 %.not3950, label %._crit_edge52, label %.lr.ph51

46:                                               ; preds = %._crit_edge
  call void (i32, ptr, ...) @mprintf(i32 noundef 5, ptr noundef nonnull @.str.267, ptr noundef %0) #25
  %47 = call i32 @fclose(ptr noundef nonnull %9)
  br label %66

.lr.ph51:                                         ; preds = %.preheader, %.backedge
  %48 = phi ptr [ %55, %.backedge ], [ %45, %.preheader ]
  %49 = load i64, ptr %48, align 8
  %.not40 = icmp eq i64 %49, 0
  br i1 %.not40, label %.backedge, label %50

50:                                               ; preds = %.lr.ph51
  %51 = getelementptr inbounds i8, ptr %48, i64 19
  %52 = call i32 @strcmp(ptr noundef nonnull dereferenceable(1) %51, ptr noundef nonnull dereferenceable(2) @.str.134) #31
  %.not41 = icmp eq i32 %52, 0
  br i1 %.not41, label %.backedge, label %53

53:                                               ; preds = %50
  %54 = call i32 @strcmp(ptr noundef nonnull dereferenceable(1) %51, ptr noundef nonnull dereferenceable(3) @.str.268) #31
  %.not42 = icmp eq i32 %54, 0
  br i1 %.not42, label %.backedge, label %56

.backedge:                                        ; preds = %.lr.ph51, %59, %56, %50, %53
  %55 = call ptr @readdir(ptr noundef nonnull %43) #25
  %.not39 = icmp eq ptr %55, null
  br i1 %.not39, label %._crit_edge52, label %.lr.ph51

56:                                               ; preds = %53
  %57 = call i32 (ptr, i64, ptr, ...) @snprintf(ptr noundef nonnull dereferenceable(1) %5, i64 noundef 1024, ptr noundef nonnull @.str.269, ptr noundef %1, ptr noundef nonnull %51) #25
  %58 = call i32 @access(ptr noundef nonnull %5, i32 noundef 4) #25
  %.not43 = icmp eq i32 %58, 0
  br i1 %.not43, label %.backedge, label %59

59:                                               ; preds = %56
  %60 = call i32 (ptr, ptr, ...) @fprintf(ptr noundef nonnull %9, ptr noundef nonnull @.str.270, ptr noundef nonnull %51) #25
  br label %.backedge

._crit_edge52:                                    ; preds = %.backedge, %.preheader
  %61 = call i32 @closedir(ptr noundef nonnull %43)
  %62 = call i32 @fclose(ptr noundef nonnull %9)
  call void (i32, ptr, ...) @mprintf(i32 noundef 0, ptr noundef nonnull @.str.271, ptr noundef %2) #25
  %63 = call i32 @chdir(ptr noundef nonnull %4) #25
  %64 = icmp eq i32 %63, -1
  br i1 %64, label %65, label %66

65:                                               ; preds = %._crit_edge52
  call void (i32, ptr, ...) @mprintf(i32 noundef 4, ptr noundef nonnull @.str.266, ptr noundef nonnull %4) #25
  br label %66

66:                                               ; preds = %._crit_edge52, %65, %46, %38, %20, %14, %10, %7
  %.0 = phi i32 [ -1, %14 ], [ -1, %20 ], [ -1, %38 ], [ -1, %46 ], [ -1, %10 ], [ -1, %7 ], [ 0, %65 ], [ 0, %._crit_edge52 ]
  ret i32 %.0
}